target datalayout = "e-m:e-p270:32:32-p271:32:32-p272:64:64-i64:64-i128:128-f80:128-n8:16:32:64-S128"
target triple = "x86_64-unknown-linux-gnu"

%"class.icu_75::UVector" = type { %"class.icu_75::UObject", i32, i32, ptr, ptr, ptr }
%"class.icu_75::UObject" = type { ptr }
%union.UElement = type { ptr }

; Function Attrs: mustprogress nounwind uwtable
define internal noundef signext i8 @_ZL9U_FAILURE10UErrorCode(i32 noundef %code) #0 {
entry:
  %code.addr = alloca i32, align 4
  store i32 %code, ptr %code.addr, align 4
  %0 = load i32, ptr %code.addr, align 4
  %cmp = icmp sgt i32 %0, 0
  %conv = zext i1 %cmp to i8
  ret i8 %conv
}

; Function Attrs: mustprogress uwtable
define noundef signext i8 @_ZN6icu_757UVector14ensureCapacityEiR10UErrorCode(ptr noundef nonnull align 8 dereferenceable(40) %this, i32 noundef %minimumCapacity, ptr noundef nonnull align 4 dereferenceable(4) %status) #1 align 2 {
entry:
  %retval = alloca i8, align 1
  %this.addr = alloca ptr, align 8
  %minimumCapacity.addr = alloca i32, align 4
  %status.addr = alloca ptr, align 8
  %newCap = alloca i32, align 4
  %newElems = alloca ptr, align 8
  store ptr %this, ptr %this.addr, align 8
  store i32 %minimumCapacity, ptr %minimumCapacity.addr, align 4
  store ptr %status, ptr %status.addr, align 8
  %this1 = load ptr, ptr %this.addr, align 8
  %0 = load ptr, ptr %status.addr, align 8
  %1 = load i32, ptr %0, align 4
  %call = call noundef signext i8 @_ZL9U_FAILURE10UErrorCode(i32 noundef %1)
  %tobool = icmp ne i8 %call, 0
  br i1 %tobool, label %if.then, label %if.end

if.then:                                          ; preds = %entry
  store i8 0, ptr %retval, align 1
  br label %return

if.end:                                           ; preds = %entry
  %2 = load i32, ptr %minimumCapacity.addr, align 4
  %cmp = icmp slt i32 %2, 0
  br i1 %cmp, label %if.then2, label %if.end3

if.then2:                                         ; preds = %if.end
  %3 = load ptr, ptr %status.addr, align 8
  store i32 1, ptr %3, align 4
  store i8 0, ptr %retval, align 1
  br label %return

if.end3:                                          ; preds = %if.end
  %capacity = getelementptr inbounds %"class.icu_75::UVector", ptr %this1, i32 0, i32 2
  %4 = load i32, ptr %capacity, align 4
  %5 = load i32, ptr %minimumCapacity.addr, align 4
  %cmp4 = icmp slt i32 %4, %5
  br i1 %cmp4, label %if.then5, label %if.end24

if.then5:                                         ; preds = %if.end3
  %capacity6 = getelementptr inbounds %"class.icu_75::UVector", ptr %this1, i32 0, i32 2
  %6 = load i32, ptr %capacity6, align 4
  %cmp7 = icmp sgt i32 %6, 1073741823
  br i1 %cmp7, label %if.then8, label %if.end9

if.then8:                                         ; preds = %if.then5
  %7 = load ptr, ptr %status.addr, align 8
  store i32 1, ptr %7, align 4
  store i8 0, ptr %retval, align 1
  br label %return

if.end9:                                          ; preds = %if.then5
  %capacity10 = getelementptr inbounds %"class.icu_75::UVector", ptr %this1, i32 0, i32 2
  %8 = load i32, ptr %capacity10, align 4
  %mul = mul nsw i32 %8, 2
  store i32 %mul, ptr %newCap, align 4
  %9 = load i32, ptr %newCap, align 4
  %10 = load i32, ptr %minimumCapacity.addr, align 4
  %cmp11 = icmp slt i32 %9, %10
  br i1 %cmp11, label %if.then12, label %if.end13

if.then12:                                        ; preds = %if.end9
  %11 = load i32, ptr %minimumCapacity.addr, align 4
  store i32 %11, ptr %newCap, align 4
  br label %if.end13

if.end13:                                         ; preds = %if.then12, %if.end9
  %12 = load i32, ptr %newCap, align 4
  %cmp14 = icmp sgt i32 %12, 268435455
  br i1 %cmp14, label %if.then15, label %if.end16

if.then15:                                        ; preds = %if.end13
  %13 = load ptr, ptr %status.addr, align 8
  store i32 1, ptr %13, align 4
  store i8 0, ptr %retval, align 1
  br label %return

if.end16:                                         ; preds = %if.end13
  %elements = getelementptr inbounds %"class.icu_75::UVector", ptr %this1, i32 0, i32 3
  %14 = load ptr, ptr %elements, align 8
  %15 = load i32, ptr %newCap, align 4
  %conv = sext i32 %15 to i64
  %mul17 = mul i64 8, %conv
  %call18 = call ptr @uprv_realloc_75(ptr noundef %14, i64 noundef %mul17) #12
  store ptr %call18, ptr %newElems, align 8
  %16 = load ptr, ptr %newElems, align 8
  %cmp19 = icmp eq ptr %16, null
  br i1 %cmp19, label %if.then20, label %if.end21

if.then20:                                        ; preds = %if.end16
  %17 = load ptr, ptr %status.addr, align 8
  store i32 7, ptr %17, align 4
  store i8 0, ptr %retval, align 1
  br label %return

if.end21:                                         ; preds = %if.end16
  %18 = load ptr, ptr %newElems, align 8
  %elements22 = getelementptr inbounds %"class.icu_75::UVector", ptr %this1, i32 0, i32 3
  store ptr %18, ptr %elements22, align 8
  %19 = load i32, ptr %newCap, align 4
  %capacity23 = getelementptr inbounds %"class.icu_75::UVector", ptr %this1, i32 0, i32 2
  store i32 %19, ptr %capacity23, align 4
  br label %if.end24

if.end24:                                         ; preds = %if.end21, %if.end3
  store i8 1, ptr %retval, align 1
  br label %return

return:                                           ; preds = %if.end24, %if.then20, %if.then15, %if.then8, %if.then2, %if.then
  %20 = load i8, ptr %retval, align 1
  ret i8 %20
}

; Function Attrs: mustprogress uwtable
define void @_ZN6icu_757UVector12sortedInsertE8UElementPFiS1_S1_ER10UErrorCode(ptr noundef nonnull align 8 dereferenceable(40) %this, ptr %e.coerce, ptr noundef %compare, ptr noundef nonnull align 4 dereferenceable(4) %ec) #1 align 2 {
entry:
  %e = alloca %union.UElement, align 8
  %this.addr = alloca ptr, align 8
  %compare.addr = alloca ptr, align 8
  %ec.addr = alloca ptr, align 8
  %min = alloca i32, align 4
  %max = alloca i32, align 4
  %probe = alloca i32, align 4
  %c = alloca i32, align 4
  %agg.tmp = alloca %union.UElement, align 8
  %agg.tmp8 = alloca %union.UElement, align 8
  %i = alloca i32, align 4
  %coerce.dive = getelementptr inbounds %union.UElement, ptr %e, i32 0, i32 0
  store ptr %e.coerce, ptr %coerce.dive, align 8
  store ptr %this, ptr %this.addr, align 8
  store ptr %compare, ptr %compare.addr, align 8
  store ptr %ec, ptr %ec.addr, align 8
  %this1 = load ptr, ptr %this.addr, align 8
  %count = getelementptr inbounds %"class.icu_75::UVector", ptr %this1, i32 0, i32 1
  %0 = load i32, ptr %count, align 8
  %add = add nsw i32 %0, 1
  %1 = load ptr, ptr %ec.addr, align 8
  %call = call noundef signext i8 @_ZN6icu_757UVector14ensureCapacityEiR10UErrorCode(ptr noundef nonnull align 8 dereferenceable(40) %this1, i32 noundef %add, ptr noundef nonnull align 4 dereferenceable(4) %1)
  %tobool = icmp ne i8 %call, 0
  br i1 %tobool, label %if.end4, label %if.then

if.then:                                          ; preds = %entry
  %deleter = getelementptr inbounds %"class.icu_75::UVector", ptr %this1, i32 0, i32 4
  %2 = load ptr, ptr %deleter, align 8
  %cmp = icmp ne ptr %2, null
  br i1 %cmp, label %if.then2, label %if.end

if.then2:                                         ; preds = %if.then
  %deleter3 = getelementptr inbounds %"class.icu_75::UVector", ptr %this1, i32 0, i32 4
  %3 = load ptr, ptr %deleter3, align 8
  %4 = load ptr, ptr %e, align 8
  call void %3(ptr noundef %4)
  br label %if.end

if.end:                                           ; preds = %if.then2, %if.then
  br label %return

if.end4:                                          ; preds = %entry
  store i32 0, ptr %min, align 4
  %count5 = getelementptr inbounds %"class.icu_75::UVector", ptr %this1, i32 0, i32 1
  %5 = load i32, ptr %count5, align 8
  store i32 %5, ptr %max, align 4
  br label %while.cond

while.cond:                                       ; preds = %if.end15, %if.end4
  %6 = load i32, ptr %min, align 4
  %7 = load i32, ptr %max, align 4
  %cmp6 = icmp ne i32 %6, %7
  br i1 %cmp6, label %while.body, label %while.end

while.body:                                       ; preds = %while.cond
  %8 = load i32, ptr %min, align 4
  %9 = load i32, ptr %max, align 4
  %add7 = add nsw i32 %8, %9
  %div = sdiv i32 %add7, 2
  store i32 %div, ptr %probe, align 4
  %10 = load ptr, ptr %compare.addr, align 8
  %elements = getelementptr inbounds %"class.icu_75::UVector", ptr %this1, i32 0, i32 3
  %11 = load ptr, ptr %elements, align 8
  %12 = load i32, ptr %probe, align 4
  %idxprom = sext i32 %12 to i64
  %arrayidx = getelementptr inbounds %union.UElement, ptr %11, i64 %idxprom
  call void @llvm.memcpy.p0.p0.i64(ptr align 8 %agg.tmp, ptr align 8 %arrayidx, i64 8, i1 false)
  call void @llvm.memcpy.p0.p0.i64(ptr align 8 %agg.tmp8, ptr align 8 %e, i64 8, i1 false)
  %coerce.dive9 = getelementptr inbounds %union.UElement, ptr %agg.tmp, i32 0, i32 0
  %13 = load ptr, ptr %coerce.dive9, align 8
  %coerce.dive10 = getelementptr inbounds %union.UElement, ptr %agg.tmp8, i32 0, i32 0
  %14 = load ptr, ptr %coerce.dive10, align 8
  %call11 = call noundef i32 %10(ptr %13, ptr %14)
  store i32 %call11, ptr %c, align 4
  %15 = load i32, ptr %c, align 4
  %cmp12 = icmp sgt i32 %15, 0
  br i1 %cmp12, label %if.then13, label %if.else

if.then13:                                        ; preds = %while.body
  %16 = load i32, ptr %probe, align 4
  store i32 %16, ptr %max, align 4
  br label %if.end15

if.else:                                          ; preds = %while.body
  %17 = load i32, ptr %probe, align 4
  %add14 = add nsw i32 %17, 1
  store i32 %add14, ptr %min, align 4
  br label %if.end15

if.end15:                                         ; preds = %if.else, %if.then13
  br label %while.cond, !llvm.loop !22

while.end:                                        ; preds = %while.cond
  %count16 = getelementptr inbounds %"class.icu_75::UVector", ptr %this1, i32 0, i32 1
  %18 = load i32, ptr %count16, align 8
  store i32 %18, ptr %i, align 4
  br label %for.cond

for.cond:                                         ; preds = %for.inc, %while.end
  %19 = load i32, ptr %i, align 4
  %20 = load i32, ptr %min, align 4
  %cmp17 = icmp sgt i32 %19, %20
  br i1 %cmp17, label %for.body, label %for.end

for.body:                                         ; preds = %for.cond
  %elements18 = getelementptr inbounds %"class.icu_75::UVector", ptr %this1, i32 0, i32 3
  %21 = load ptr, ptr %elements18, align 8
  %22 = load i32, ptr %i, align 4
  %sub = sub nsw i32 %22, 1
  %idxprom19 = sext i32 %sub to i64
  %arrayidx20 = getelementptr inbounds %union.UElement, ptr %21, i64 %idxprom19
  %elements21 = getelementptr inbounds %"class.icu_75::UVector", ptr %this1, i32 0, i32 3
  %23 = load ptr, ptr %elements21, align 8
  %24 = load i32, ptr %i, align 4
  %idxprom22 = sext i32 %24 to i64
  %arrayidx23 = getelementptr inbounds %union.UElement, ptr %23, i64 %idxprom22
  call void @llvm.memcpy.p0.p0.i64(ptr align 8 %arrayidx23, ptr align 8 %arrayidx20, i64 8, i1 false)
  br label %for.inc

for.inc:                                          ; preds = %for.body
  %25 = load i32, ptr %i, align 4
  %dec = add nsw i32 %25, -1
  store i32 %dec, ptr %i, align 4
  br label %for.cond, !llvm.loop !23

for.end:                                          ; preds = %for.cond
  %elements24 = getelementptr inbounds %"class.icu_75::UVector", ptr %this1, i32 0, i32 3
  %26 = load ptr, ptr %elements24, align 8
  %27 = load i32, ptr %min, align 4
  %idxprom25 = sext i32 %27 to i64
  %arrayidx26 = getelementptr inbounds %union.UElement, ptr %26, i64 %idxprom25
  call void @llvm.memcpy.p0.p0.i64(ptr align 8 %arrayidx26, ptr align 8 %e, i64 8, i1 false)
  %count27 = getelementptr inbounds %"class.icu_75::UVector", ptr %this1, i32 0, i32 1
  %28 = load i32, ptr %count27, align 8
  %inc = add nsw i32 %28, 1
  store i32 %inc, ptr %count27, align 8
  br label %return

return:                                           ; preds = %for.end, %if.end
  ret void
}