; Function Attrs: mustprogress uwtable
define void @_ZN6icu_757UVector12sortedInsertE8UElementPFiS1_S1_ER10UErrorCode(ptr nocapture noundef nonnull align 8 dereferenceable(40) %this, ptr %e.coerce, ptr nocapture noundef readonly %compare, ptr nocapture noundef nonnull align 4 dereferenceable(4) %ec) local_unnamed_addr #1 align 2 {
entry:
  %count = getelementptr inbounds i8, ptr %this, i64 8
  %0 = load i32, ptr %count, align 8
  %add = add nsw i32 %0, 1
  %1 = load i32, ptr %ec, align 4
  %cmp.i.i = icmp slt i32 %1, 1
  br i1 %cmp.i.i, label %if.end.i, label %if.then

if.end.i:                                         ; preds = %entry
  %cmp.i = icmp slt i32 %0, -1
  br i1 %cmp.i, label %if.then.sink.split, label %if.end3.i

if.end3.i:                                        ; preds = %if.end.i
  %capacity.i = getelementptr inbounds i8, ptr %this, i64 12
  %2 = load i32, ptr %capacity.i, align 4
  %cmp4.i.not = icmp sgt i32 %2, %0
  br i1 %cmp4.i.not, label %if.end4, label %if.then5.i

if.then5.i:                                       ; preds = %if.end3.i
  %cmp7.i = icmp sgt i32 %2, 1073741823
  br i1 %cmp7.i, label %if.then.sink.split, label %if.end9.i

if.end9.i:                                        ; preds = %if.then5.i
  %mul.i = shl nsw i32 %2, 1
  %spec.select.i = tail call i32 @llvm.smax.i32(i32 %mul.i, i32 %add)
  %cmp14.i = icmp ugt i32 %spec.select.i, 268435455
  br i1 %cmp14.i, label %if.then.sink.split, label %if.end16.i

if.end16.i:                                       ; preds = %if.end9.i
  %elements.i = getelementptr inbounds i8, ptr %this, i64 16
  %3 = load ptr, ptr %elements.i, align 8
  %4 = shl nuw nsw i32 %spec.select.i, 3
  %mul17.i = zext nneg i32 %4 to i64
  %call18.i = tail call ptr @uprv_realloc_75(ptr noundef %3, i64 noundef %mul17.i) #18
  %cmp19.i = icmp eq ptr %call18.i, null
  br i1 %cmp19.i, label %if.then.sink.split, label %if.end21.i

if.end21.i:                                       ; preds = %if.end16.i
  store ptr %call18.i, ptr %elements.i, align 8
  store i32 %spec.select.i, ptr %capacity.i, align 4
  %.pre = load i32, ptr %count, align 8
  br label %if.end4

if.then.sink.split:                               ; preds = %if.end16.i, %if.end9.i, %if.then5.i, %if.end.i
  %.sink = phi i32 [ 1, %if.end.i ], [ 1, %if.then5.i ], [ 1, %if.end9.i ], [ 7, %if.end16.i ]
  store i32 %.sink, ptr %ec, align 4
  br label %if.then

if.then:                                          ; preds = %if.then.sink.split, %entry
  %deleter = getelementptr inbounds i8, ptr %this, i64 24
  %5 = load ptr, ptr %deleter, align 8
  %cmp.not = icmp eq ptr %5, null
  br i1 %cmp.not, label %return, label %if.then2

if.then2:                                         ; preds = %if.then
  tail call void %5(ptr noundef %e.coerce)
  br label %return

if.end4:                                          ; preds = %if.end21.i, %if.end3.i
  %6 = phi i32 [ %.pre, %if.end21.i ], [ %0, %if.end3.i ]
  %cmp6.not12 = icmp eq i32 %6, 0
  br i1 %cmp6.not12, label %while.end.for.end_crit_edge, label %while.body.lr.ph

while.body.lr.ph:                                 ; preds = %if.end4
  %elements = getelementptr inbounds i8, ptr %this, i64 16
  br label %while.body

while.body:                                       ; preds = %while.body.lr.ph, %while.body
  %min.014 = phi i32 [ 0, %while.body.lr.ph ], [ %min.1, %while.body ]
  %max.013 = phi i32 [ %6, %while.body.lr.ph ], [ %max.1, %while.body ]
  %add7 = add nsw i32 %min.014, %max.013
  %div = sdiv i32 %add7, 2
  %7 = load ptr, ptr %elements, align 8
  %idxprom = sext i32 %div to i64
  %arrayidx = getelementptr inbounds %union.UElement, ptr %7, i64 %idxprom
  %agg.tmp.sroa.0.0.copyload = load ptr, ptr %arrayidx, align 8
  %call11 = tail call noundef i32 %compare(ptr %agg.tmp.sroa.0.0.copyload, ptr %e.coerce)
  %cmp12 = icmp sgt i32 %call11, 0
  %add14 = add nsw i32 %div, 1
  %max.1 = select i1 %cmp12, i32 %div, i32 %max.013
  %min.1 = select i1 %cmp12, i32 %min.014, i32 %add14
  %cmp6.not = icmp eq i32 %min.1, %max.1
  br i1 %cmp6.not, label %while.end, label %while.body, !llvm.loop !25

while.end:                                        ; preds = %while.body
  %.pre18 = load i32, ptr %count, align 8
  %cmp1715 = icmp sgt i32 %.pre18, %max.1
  br i1 %cmp1715, label %for.body.lr.ph, label %while.end.for.end_crit_edge

while.end.for.end_crit_edge:                      ; preds = %if.end4, %while.end
  %min.0.lcssa22 = phi i32 [ %max.1, %while.end ], [ 0, %if.end4 ]
  %.pre19 = sext i32 %min.0.lcssa22 to i64
  br label %for.end

for.body.lr.ph:                                   ; preds = %while.end
  %elements18 = getelementptr inbounds i8, ptr %this, i64 16
  %8 = sext i32 %.pre18 to i64
  %9 = sext i32 %max.1 to i64
  br label %for.body

for.body:                                         ; preds = %for.body.lr.ph, %for.body
  %indvars.iv = phi i64 [ %8, %for.body.lr.ph ], [ %indvars.iv.next, %for.body ]
  %10 = load ptr, ptr %elements18, align 8
  %11 = getelementptr %union.UElement, ptr %10, i64 %indvars.iv
  %arrayidx20 = getelementptr i8, ptr %11, i64 -8
  %12 = load i64, ptr %arrayidx20, align 8
  store i64 %12, ptr %11, align 8
  %indvars.iv.next = add nsw i64 %indvars.iv, -1
  %cmp17 = icmp sgt i64 %indvars.iv.next, %9
  br i1 %cmp17, label %for.body, label %for.end, !llvm.loop !26

for.end:                                          ; preds = %for.body, %while.end.for.end_crit_edge
  %idxprom25.pre-phi = phi i64 [ %.pre19, %while.end.for.end_crit_edge ], [ %9, %for.body ]
  %elements24 = getelementptr inbounds i8, ptr %this, i64 16
  %13 = load ptr, ptr %elements24, align 8
  %arrayidx26 = getelementptr inbounds %union.UElement, ptr %13, i64 %idxprom25.pre-phi
  store ptr %e.coerce, ptr %arrayidx26, align 8
  %14 = load i32, ptr %count, align 8
  %inc = add nsw i32 %14, 1
  store i32 %inc, ptr %count, align 8
  br label %return

return:                                           ; preds = %if.then, %if.then2, %for.end
  ret void
}